; Function Attrs: nounwind uwtable
define ptr @l_Lean_Meta_SynthInstance_resume___lambda__2(ptr noundef %0, ptr noundef %1, ptr noundef %2, ptr noundef %3, ptr readnone captures(none) %4, ptr noundef %5, ptr noundef %6, ptr noundef %7, ptr noundef %8, ptr noundef %9, ptr noundef %10, ptr noundef %11) local_unnamed_addr #1 {
  %13 = getelementptr inbounds nuw i8, ptr %0, i64 16
  %14 = load ptr, ptr %13, align 8, !tbaa !9
  %15 = ptrtoint ptr %14 to i64
  %16 = and i64 %15, 1
  %.not = icmp eq i64 %16, 0
  br i1 %.not, label %17, label %lean_inc.exit

17:                                               ; preds = %12
  %.val.i = load i32, ptr %14, align 4, !tbaa !4
  %18 = icmp sgt i32 %.val.i, 0
  br i1 %18, label %19, label %21, !prof !11

19:                                               ; preds = %17
  %20 = add nuw i32 %.val.i, 1
  store i32 %20, ptr %14, align 4, !tbaa !4
  br label %lean_inc.exit

21:                                               ; preds = %17
  %.not.i23 = icmp eq i32 %.val.i, 0
  br i1 %.not.i23, label %lean_inc.exit, label %22

22:                                               ; preds = %21
  tail call void @lean_inc_ref_cold(ptr noundef nonnull %14) #7
  br label %lean_inc.exit

lean_inc.exit:                                    ; preds = %22, %21, %19, %12
  %23 = ptrtoint ptr %0 to i64
  %24 = and i64 %23, 1
  %.not26 = icmp eq i64 %24, 0
  br i1 %.not26, label %25, label %lean_dec.exit

25:                                               ; preds = %lean_inc.exit
  %26 = load i32, ptr %0, align 4, !tbaa !4
  %27 = icmp sgt i32 %26, 1
  br i1 %27, label %28, label %30, !prof !11

28:                                               ; preds = %25
  %29 = add nsw i32 %26, -1
  store i32 %29, ptr %0, align 4, !tbaa !4
  br label %lean_dec.exit

30:                                               ; preds = %25
  %.not.i = icmp eq i32 %26, 0
  br i1 %.not.i, label %lean_dec.exit, label %31

31:                                               ; preds = %30
  tail call void @lean_dec_ref_cold(ptr noundef nonnull %0) #7
  br label %lean_dec.exit

lean_dec.exit:                                    ; preds = %31, %30, %28, %lean_inc.exit
  tail call void @lean_inc_heartbeat() #7
  %32 = tail call noalias ptr @mi_malloc_small(i64 noundef 32) #7
  %33 = icmp eq ptr %32, null
  br i1 %33, label %34, label %lean_alloc_closure.exit

34:                                               ; preds = %lean_dec.exit
  tail call void @lean_internal_panic_out_of_memory() #8
  unreachable

lean_alloc_closure.exit:                          ; preds = %lean_dec.exit
  %35 = getelementptr inbounds nuw i8, ptr %32, i64 4
  store i32 1, ptr %32, align 4, !tbaa !4
  store i32 -184549344, ptr %35, align 4
  %36 = getelementptr inbounds nuw i8, ptr %32, i64 8
  store ptr @l_Lean_instantiateMVars___at_Lean_Meta_SynthInstance_mkTableKeyFor___spec__1___boxed, ptr %36, align 8, !tbaa !9
  %37 = getelementptr inbounds nuw i8, ptr %32, i64 16
  store i16 8, ptr %37, align 8, !tbaa !15
  %38 = getelementptr inbounds nuw i8, ptr %32, i64 18
  store i16 1, ptr %38, align 2, !tbaa !15
  %39 = getelementptr inbounds nuw i8, ptr %32, i64 24
  store ptr %14, ptr %39, align 8, !tbaa !9
  tail call void @lean_inc_heartbeat() #7
  %40 = tail call noalias ptr @mi_malloc_small(i64 noundef 40) #7
  %41 = icmp eq ptr %40, null
  br i1 %41, label %42, label %lean_alloc_closure.exit24

42:                                               ; preds = %lean_alloc_closure.exit
  tail call void @lean_internal_panic_out_of_memory() #8
  unreachable

lean_alloc_closure.exit24:                        ; preds = %lean_alloc_closure.exit
  %43 = getelementptr inbounds nuw i8, ptr %40, i64 4
  store i32 1, ptr %40, align 4, !tbaa !4
  store i32 -184549336, ptr %43, align 4
  %44 = getelementptr inbounds nuw i8, ptr %40, i64 8
  store ptr @l_Lean_Meta_SynthInstance_resume___lambda__1___boxed, ptr %44, align 8, !tbaa !9
  %45 = getelementptr inbounds nuw i8, ptr %40, i64 16
  store i16 10, ptr %45, align 8, !tbaa !15
  %46 = getelementptr inbounds nuw i8, ptr %40, i64 18
  store i16 2, ptr %46, align 2, !tbaa !15
  %47 = getelementptr inbounds nuw i8, ptr %40, i64 24
  store ptr %1, ptr %47, align 8, !tbaa !9
  %48 = getelementptr inbounds nuw i8, ptr %40, i64 32
  store ptr %2, ptr %48, align 8, !tbaa !9
  tail call void @lean_inc_heartbeat() #7
  %49 = tail call noalias ptr @mi_malloc_small(i64 noundef 40) #7
  %50 = icmp eq ptr %49, null
  br i1 %50, label %51, label %lean_alloc_closure.exit25

51:                                               ; preds = %lean_alloc_closure.exit24
  tail call void @lean_internal_panic_out_of_memory() #8
  unreachable

lean_alloc_closure.exit25:                        ; preds = %lean_alloc_closure.exit24
  %52 = getelementptr inbounds nuw i8, ptr %49, i64 4
  store i32 1, ptr %49, align 4, !tbaa !4
  store i32 -184549336, ptr %52, align 4
  %53 = getelementptr inbounds nuw i8, ptr %49, i64 8
  store ptr @l_ReaderT_bind___at_Lean_Meta_SynthInstance_newSubgoal___spec__6___rarg, ptr %53, align 8, !tbaa !9
  %54 = getelementptr inbounds nuw i8, ptr %49, i64 16
  store i16 9, ptr %54, align 8, !tbaa !15
  %55 = getelementptr inbounds nuw i8, ptr %49, i64 18
  store i16 2, ptr %55, align 2, !tbaa !15
  %56 = getelementptr inbounds nuw i8, ptr %49, i64 24
  store ptr %32, ptr %56, align 8, !tbaa !9
  %57 = getelementptr inbounds nuw i8, ptr %49, i64 32
  store ptr %40, ptr %57, align 8, !tbaa !9
  %58 = tail call ptr @l_Lean_Meta_withMCtx___at_Lean_Meta_SynthInstance_newSubgoal___spec__13___rarg(ptr noundef %3, ptr noundef nonnull %49, ptr noundef %5, ptr noundef %6, ptr noundef %7, ptr noundef %8, ptr noundef %9, ptr noundef %10, ptr noundef %11)
  ret ptr %58
}